Certificate:
    Data:
        Version: 3 (0x2)
        Serial Number: 3 (0x3)
    Signature Algorithm: sha512WithRSAEncryption
        Issuer: O=Gravitational, CN=localhost
        Validity
            Not Before: Sep 17 00:08:39 2022 GMT
            Not After : Sep 14 00:08:39 2032 GMT
        Subject: O=Gravitational, CN=localhost
        Subject Public Key Info:
            Public Key Algorithm: rsaEncryption
                Public-Key: (2048 bit)
                Modulus:
                    00:ba:65:a9:4d:7b:6d:d8:c8:f6:d6:f4:6e:36:a2:
                    e6:82:af:f4:fd:0f:df:2f:61:f7:9c:71:88:6b:bf:
                    7b:94:77:a9:18:15:08:e3:07:c6:de:57:b5:dd:ef:
                    56:de:56:ef:9c:9d:e3:85:1b:a9:68:51:d2:e3:78:
                    8d:54:57:26:b0:a8:ae:64:22:f6:ac:b9:16:6d:57:
                    d0:1d:57:6c:9c:e4:2c:6a:cd:d3:d8:94:dc:31:0a:
                    42:ac:f1:fe:f3:80:84:41:1b:19:01:25:e8:0e:eb:
                    6a:91:85:b2:93:ae:92:25:15:ca:7e:88:ef:cc:bd:
                    90:ef:a0:d0:90:3a:3b:a7:37:e1:18:12:60:a6:15:
                    17:fd:17:92:64:ec:88:07:d7:ca:95:18:6a:b9:fb:
                    99:38:be:dc:64:ac:1a:95:1e:1e:6d:e6:74:ca:74:
                    d8:3d:01:5f:9c:83:96:51:72:f4:af:fc:ac:d7:4a:
                    a8:73:d6:9b:91:94:e9:ec:4f:ec:8a:20:8d:5b:de:
                    e0:b2:4c:26:65:c3:04:1d:79:cc:a4:f3:47:26:3a:
                    1a:c8:52:db:5e:f7:83:39:77:af:53:99:76:85:48:
                    96:2c:9d:11:ef:90:a8:e0:51:04:59:0d:30:b9:72:
                    11:88:23:89:6a:c4:30:82:84:fc:af:20:a8:63:c5:
                    b3:55
                Exponent: 65537 (0x10001)
        X509v3 extensions:
            X509v3 Basic Constraints: 
                CA:FALSE
            X509v3 Extended Key Usage: 
                TLS Web Client Authentication
            X509v3 Key Usage: 
                Digital Signature, Key Encipherment
    Signature Algorithm: sha512WithRSAEncryption
         ae:1d:85:2f:34:59:27:72:a6:71:07:71:be:a9:50:19:16:b0:
         f9:19:cf:6c:c8:9f:67:18:c7:d4:ba:a9:11:31:8f:e3:ce:90:
         6a:83:47:57:54:c1:59:c8:f1:e7:ae:1a:91:8e:8f:98:5a:8c:
         6f:54:92:a5:3e:27:62:69:07:87:10:b2:6f:f9:df:38:4a:67:
         c1:e2:55:22:ae:8b:bc:fa:4b:98:c3:74:fa:18:87:70:db:15:
         90:e4:be:8a:8e:ae:3f:bd:96:de:f3:90:05:b3:1a:56:4e:fe:
         8c:7e:54:c7:76:20:cc:9f:cb:7f:49:61:0e:22:e8:b6:98:10:
         3e:94:bc:ac:72:2a:da:aa:0b:27:86:74:5c:78:ac:2c:c4:53:
         6c:75:a3:6f:93:ae:aa:92:a7:4b:8d:c2:91:48:74:93:14:c6:
         8c:fe:b6:7d:de:68:e9:3b:25:00:2e:95:ca:c5:13:bd:af:78:
         d9:02:57:9b:20:6c:ac:a2:cb:cc:35:73:7d:ba:66:eb:36:d4:
         d6:36:04:fc:74:91:7f:5c:00:37:7d:5c:b7:89:54:77:cb:22:
         04:e7:58:be:24:f0:ac:f2:66:5d:77:73:b7:8e:89:f8:4a:43:
         45:ae:7f:bd:cf:d6:06:7b:5b:c1:db:f2:3e:29:50:82:2c:e0:
         85:eb:96:7d
-----BEGIN CERTIFICATE-----
MIIDAjCCAeqgAwIBAgIBAzANBgkqhkiG9w0BAQ0FADAsMRYwFAYDVQQKDA1HcmF2
aXRhdGlvbmFsMRIwEAYDVQQDDAlsb2NhbGhvc3QwHhcNMjIwOTE3MDAwODM5WhcN
MzIwOTE0MDAwODM5WjAsMRYwFAYDVQQKDA1HcmF2aXRhdGlvbmFsMRIwEAYDVQQD
DAlsb2NhbGhvc3QwggEiMA0GCSqGSIb3DQEBAQUAA4IBDwAwggEKAoIBAQC6ZalN
e23YyPbW9G42ouaCr/T9D98vYfeccYhrv3uUd6kYFQjjB8beV7Xd71beVu+cneOF
G6loUdLjeI1UVyawqK5kIvasuRZtV9AdV2yc5CxqzdPYlNwxCkKs8f7zgIRBGxkB
JegO62qRhbKTrpIlFcp+iO/MvZDvoNCQOjunN+EYEmCmFRf9F5Jk7IgH18qVGGq5
+5k4vtxkrBqVHh5t5nTKdNg9AV+cg5ZRcvSv/KzXSqhz1puRlOnsT+yKII1b3uCy
TCZlwwQdecyk80cmOhrIUtte94M5d69TmXaFSJYsnRHvkKjgUQRZDTC5chGII4lq
xDCChPyvIKhjxbNVAgMBAAGjLzAtMAkGA1UdEwQCMAAwEwYDVR0lBAwwCgYIKwYB
BQUHAwIwCwYDVR0PBAQDAgWgMA0GCSqGSIb3DQEBDQUAA4IBAQCuHYUvNFkncqZx
B3G+qVAZFrD5Gc9syJ9nGMfUuqkRMY/jzpBqg0dXVMFZyPHnrhqRjo+YWoxvVJKl
PidiaQeHELJv+d84SmfB4lUirou8+kuYw3T6GIdw2xWQ5L6Kjq4/vZbe85AFsxpW
Tv6MflTHdiDMn8t/SWEOIui2mBA+lLysciraqgsnhnRceKwsxFNsdaNvk66qkqdL
jcKRSHSTFMaM/rZ93mjpOyUALpXKxRO9r3jZAlebIGysosvMNXN9umbrNtTWNgT8
dJF/XAA3fVy3iVR3yyIE51i+JPCs8mZdd3O3jon4SkNFrn+9z9YGe1vB2/I+KVCC
LOCF65Z9
-----END CERTIFICATE-----
