Certificate:
    Data:
        Version: 3 (0x2)
        Serial Number: 1 (0x1)
    Signature Algorithm: sha512WithRSAEncryption
        Issuer: O=Gravitational, CN=localhost
        Validity
            Not Before: Sep 17 00:08:37 2022 GMT
            Not After : Sep 14 00:08:37 2032 GMT
        Subject: O=Gravitational, CN=localhost
        Subject Public Key Info:
            Public Key Algorithm: rsaEncryption
                Public-Key: (2048 bit)
                Modulus:
                    00:bd:40:e6:2a:d9:40:21:94:01:ae:ab:0c:7d:bb:
                    2d:05:08:c8:bc:fe:60:e4:d9:9a:9b:06:96:06:a8:
                    f8:72:e6:46:db:51:44:24:f4:b8:f2:40:b5:91:46:
                    f5:70:22:90:c9:60:3d:2f:63:1f:eb:07:03:7e:9b:
                    ea:48:3a:8b:5e:56:cd:6b:6d:d8:19:17:81:5d:89:
                    06:ba:de:fb:8b:e1:c2:1e:e1:23:12:e0:e5:43:65:
                    73:7d:8e:ae:69:fd:17:73:48:f5:f9:11:53:51:c5:
                    cb:0d:58:e7:b8:12:ae:bc:c7:3c:08:25:c6:39:e8:
                    8b:3c:87:f6:c0:1f:2d:b0:01:91:c0:96:44:8f:cf:
                    c1:e2:be:ed:46:69:18:93:68:4d:9f:88:37:77:28:
                    24:9a:87:d8:ce:e7:20:ad:5a:58:bc:f9:9d:b3:a1:
                    2b:27:49:27:ba:6c:95:49:87:26:fb:2c:1e:e8:1a:
                    79:5d:17:c2:f5:51:f9:ce:03:72:6d:d0:47:f2:1c:
                    c5:8b:9c:8d:61:c9:5e:1c:b7:eb:e7:35:5a:89:35:
                    e0:2c:63:f5:16:ae:51:1d:cb:eb:a8:3b:02:b0:64:
                    3a:b7:42:a3:a7:9e:7a:24:09:f8:27:b0:cb:0f:de:
                    71:34:cf:c8:1e:a1:ad:c4:86:5c:a6:3a:b0:13:76:
                    b1:e5
                Exponent: 65537 (0x10001)
        X509v3 extensions:
            X509v3 Basic Constraints: 
                CA:FALSE
            X509v3 Extended Key Usage: 
                TLS Web Client Authentication, TLS Web Server Authentication
            X509v3 Key Usage: 
                Digital Signature, Key Encipherment
            X509v3 Subject Alternative Name: 
                DNS:etcd0, DNS:etcd1, DNS:etcd2, DNS:localhost, IP Address:172.11.1.1, IP Address:172.11.1.2, IP Address:172.11.1.3, IP Address:127.0.0.1
    Signature Algorithm: sha512WithRSAEncryption
         0f:ca:be:f7:67:4c:fc:0b:29:af:de:9f:bd:72:85:52:05:ab:
         d8:98:f8:32:ba:c9:4e:e8:96:1e:5e:f4:a7:41:2d:62:b4:09:
         12:d7:e4:9c:21:e6:94:35:b5:01:eb:8a:7d:de:4b:e2:f1:14:
         83:2e:c0:62:7b:02:98:79:50:85:f0:52:72:ae:46:75:af:80:
         58:92:75:e6:7e:cc:f7:dd:a2:3d:02:55:18:73:ee:20:4c:23:
         6d:7f:13:c2:1a:9b:bb:a5:66:40:ab:4a:de:f9:df:b4:53:b2:
         cf:b7:1b:95:03:37:8c:04:4e:66:26:d7:4a:29:5c:03:d2:58:
         75:25:62:eb:09:88:db:e6:75:a3:86:b9:4f:e3:17:3e:03:e0:
         11:ba:21:3d:e3:d0:0a:a2:f5:b8:be:10:44:28:75:bc:d2:92:
         7c:5e:03:cf:b9:86:7a:f3:59:61:da:65:12:9c:19:eb:65:29:
         d0:97:ba:38:6c:87:70:1e:6b:63:c8:6c:b9:aa:f6:ac:be:3f:
         58:4b:67:a9:d9:3e:e8:6b:fe:2b:48:d5:0e:c9:27:c7:74:de:
         15:e8:d1:7d:03:50:6b:76:0b:2b:76:94:55:c8:d0:17:5e:e3:
         1e:a0:18:42:c3:24:d5:9b:83:e0:a0:4b:8c:2f:36:b4:21:3f:
         c6:07:80:44
-----BEGIN CERTIFICATE-----
MIIDTzCCAjegAwIBAgIBATANBgkqhkiG9w0BAQ0FADAsMRYwFAYDVQQKDA1HcmF2
aXRhdGlvbmFsMRIwEAYDVQQDDAlsb2NhbGhvc3QwHhcNMjIwOTE3MDAwODM3WhcN
MzIwOTE0MDAwODM3WjAsMRYwFAYDVQQKDA1HcmF2aXRhdGlvbmFsMRIwEAYDVQQD
DAlsb2NhbGhvc3QwggEiMA0GCSqGSIb3DQEBAQUAA4IBDwAwggEKAoIBAQC9QOYq
2UAhlAGuqwx9uy0FCMi8/mDk2ZqbBpYGqPhy5kbbUUQk9LjyQLWRRvVwIpDJYD0v
Yx/rBwN+m+pIOoteVs1rbdgZF4FdiQa63vuL4cIe4SMS4OVDZXN9jq5p/RdzSPX5
EVNRxcsNWOe4Eq68xzwIJcY56Is8h/bAHy2wAZHAlkSPz8Hivu1GaRiTaE2fiDd3
KCSah9jO5yCtWli8+Z2zoSsnSSe6bJVJhyb7LB7oGnldF8L1UfnOA3Jt0EfyHMWL
nI1hyV4ct+vnNVqJNeAsY/UWrlEdy+uoOwKwZDq3QqOnnnokCfgnsMsP3nE0z8ge
oa3EhlymOrATdrHlAgMBAAGjfDB6MAkGA1UdEwQCMAAwHQYDVR0lBBYwFAYIKwYB
BQUHAwIGCCsGAQUFBwMBMAsGA1UdDwQEAwIFoDBBBgNVHREEOjA4ggVldGNkMIIF
ZXRjZDGCBWV0Y2Qygglsb2NhbGhvc3SHBKwLAQGHBKwLAQKHBKwLAQOHBH8AAAEw
DQYJKoZIhvcNAQENBQADggEBAA/KvvdnTPwLKa/en71yhVIFq9iY+DK6yU7olh5e
9KdBLWK0CRLX5Jwh5pQ1tQHrin3eS+LxFIMuwGJ7Aph5UIXwUnKuRnWvgFiSdeZ+
zPfdoj0CVRhz7iBMI21/E8Iam7ulZkCrSt7537RTss+3G5UDN4wETmYm10opXAPS
WHUlYusJiNvmdaOGuU/jFz4D4BG6IT3j0Aqi9bi+EEQodbzSknxeA8+5hnrzWWHa
ZRKcGetlKdCXujhsh3Aea2PIbLmq9qy+P1hLZ6nZPuhr/itI1Q7JJ8d03hXo0X0D
UGt2Cyt2lFXI0Bde4x6gGELDJNWbg+CgS4wvNrQhP8YHgEQ=
-----END CERTIFICATE-----
