Certificate:
    Data:
        Version: 3 (0x2)
        Serial Number: 3 (0x3)
        Signature Algorithm: sha512WithRSAEncryption
        Issuer: C=US, ST=San Francisco, L=SOMA, O=Gravitational, CN=localhost
        Validity
            Not Before: Sep  3 18:48:39 2019 GMT
            Not After : Aug 31 18:48:39 2029 GMT
        Subject: O=Gravitational, CN=localhost
        Subject Public Key Info:
            Public Key Algorithm: rsaEncryption
                RSA Public-Key: (2048 bit)
                Modulus:
                    00:c4:3c:a1:be:f5:b4:79:f8:46:34:a3:22:c0:f1:
                    fe:63:97:24:2d:ff:b1:fa:7f:6c:fe:b8:5a:96:e6:
                    b5:ce:dc:da:1e:9c:5e:f4:8b:25:90:26:e2:4a:2b:
                    5c:ad:ca:13:42:b2:b9:80:73:11:1d:92:2f:ff:36:
                    92:c8:1f:37:ab:3d:d9:27:f1:26:97:4c:f0:dd:16:
                    6d:f9:43:ed:e7:6a:d3:85:0e:a4:47:22:d2:60:2d:
                    ce:34:9f:a0:d7:45:8d:23:5c:f4:b3:7c:6f:bb:df:
                    c3:ec:6c:32:ac:29:b9:9c:fe:aa:2f:67:5f:6b:f0:
                    b3:a7:95:55:23:c8:4c:33:36:da:03:5b:ea:8a:23:
                    f5:33:39:0b:8c:07:97:8a:4c:89:df:71:f6:2f:09:
                    0b:4b:bd:4f:8d:ea:d1:0d:2c:3c:3e:56:45:7a:05:
                    ee:71:f9:ca:fd:8f:82:18:db:ed:a7:25:66:90:02:
                    c6:db:24:6f:74:b2:f0:b7:d1:17:3b:83:6c:d0:38:
                    44:10:20:fa:c9:a8:c8:58:4e:d6:23:02:0b:0d:1c:
                    1b:90:ab:5e:c3:73:0b:64:30:29:ae:da:7a:10:20:
                    c4:ca:7f:1c:69:56:71:30:07:3d:bf:e0:62:f4:67:
                    40:d9:58:76:0c:67:60:a2:70:87:dc:4d:22:94:04:
                    2f:af
                Exponent: 65537 (0x10001)
        X509v3 extensions:
            X509v3 Basic Constraints: 
                CA:FALSE
            X509v3 Extended Key Usage: 
                TLS Web Client Authentication
            X509v3 Key Usage: 
                Digital Signature, Key Encipherment
    Signature Algorithm: sha512WithRSAEncryption
         57:c0:3b:66:2b:cf:23:d3:97:49:f2:69:60:27:93:19:dc:3f:
         ed:17:f5:9c:ef:9c:9c:d3:c8:70:0f:da:55:f6:0d:a2:df:fc:
         21:0d:d2:5a:e2:8a:10:d8:29:22:c4:c0:07:5c:fd:72:5d:cb:
         ae:9c:cc:33:15:9c:b3:8f:c1:09:72:c7:e9:32:60:a5:6f:a6:
         8b:5d:63:12:2a:e7:04:48:91:a6:81:67:14:a4:3d:b0:43:f9:
         18:4b:fe:8a:df:40:fc:06:6f:72:d2:0e:bd:89:a9:fc:f3:0f:
         ce:c6:7c:68:1c:11:49:4b:d5:82:dd:d8:a6:36:15:9a:b9:3a:
         ba:19:2e:88:4f:ca:76:08:6e:d2:90:84:f9:2f:93:01:f7:bc:
         e0:03:58:2b:df:32:f5:e9:13:49:7b:f7:0d:6d:84:e0:a0:81:
         a6:91:5f:68:e5:00:1f:da:b1:5a:66:0d:89:f7:cc:58:a4:08:
         7d:13:e7:3f:79:04:d1:9a:29:98:e2:7c:11:c7:da:8d:64:90:
         41:84:99:14:72:e1:96:a9:7d:a4:ae:48:96:eb:23:58:19:22:
         52:39:42:32:a1:aa:df:13:6b:e4:5e:27:37:5e:48:ca:64:c4:
         11:81:b9:8d:c7:83:07:43:a6:e3:59:a0:00:9e:8f:f1:48:f8:
         7d:03:3b:d0
-----BEGIN CERTIFICATE-----
MIIDNjCCAh6gAwIBAgIBAzANBgkqhkiG9w0BAQ0FADBgMQswCQYDVQQGEwJVUzEW
MBQGA1UECAwNU2FuIEZyYW5jaXNjbzENMAsGA1UEBwwEU09NQTEWMBQGA1UECgwN
R3Jhdml0YXRpb25hbDESMBAGA1UEAwwJbG9jYWxob3N0MB4XDTE5MDkwMzE4NDgz
OVoXDTI5MDgzMTE4NDgzOVowLDEWMBQGA1UECgwNR3Jhdml0YXRpb25hbDESMBAG
A1UEAwwJbG9jYWxob3N0MIIBIjANBgkqhkiG9w0BAQEFAAOCAQ8AMIIBCgKCAQEA
xDyhvvW0efhGNKMiwPH+Y5ckLf+x+n9s/rhalua1ztzaHpxe9IslkCbiSitcrcoT
QrK5gHMRHZIv/zaSyB83qz3ZJ/Eml0zw3RZt+UPt52rThQ6kRyLSYC3ONJ+g10WN
I1z0s3xvu9/D7GwyrCm5nP6qL2dfa/Czp5VVI8hMMzbaA1vqiiP1MzkLjAeXikyJ
33H2LwkLS71PjerRDSw8PlZFegXucfnK/Y+CGNvtpyVmkALG2yRvdLLwt9EXO4Ns
0DhEECD6yajIWE7WIwILDRwbkKtew3MLZDAprtp6ECDEyn8caVZxMAc9v+Bi9GdA
2Vh2DGdgonCH3E0ilAQvrwIDAQABoy8wLTAJBgNVHRMEAjAAMBMGA1UdJQQMMAoG
CCsGAQUFBwMCMAsGA1UdDwQEAwIFoDANBgkqhkiG9w0BAQ0FAAOCAQEAV8A7ZivP
I9OXSfJpYCeTGdw/7Rf1nO+cnNPIcA/aVfYNot/8IQ3SWuKKENgpIsTAB1z9cl3L
rpzMMxWcs4/BCXLH6TJgpW+mi11jEirnBEiRpoFnFKQ9sEP5GEv+it9A/AZvctIO
vYmp/PMPzsZ8aBwRSUvVgt3YpjYVmrk6uhkuiE/Kdghu0pCE+S+TAfe84ANYK98y
9ekTSXv3DW2E4KCBppFfaOUAH9qxWmYNiffMWKQIfRPnP3kE0ZopmOJ8EcfajWSQ
QYSZFHLhlql9pK5IlusjWBkiUjlCMqGq3xNr5F4nN15IymTEEYG5jceDB0Om41mg
AJ6P8Uj4fQM70A==
-----END CERTIFICATE-----
