Certificate:
    Data:
        Version: 3 (0x2)
        Serial Number: 1 (0x1)
        Signature Algorithm: sha512WithRSAEncryption
        Issuer: C=US, ST=San Francisco, L=SOMA, O=Gravitational, CN=localhost
        Validity
            Not Before: Sep  3 18:48:37 2019 GMT
            Not After : Aug 31 18:48:37 2029 GMT
        Subject: O=Gravitational, CN=localhost
        Subject Public Key Info:
            Public Key Algorithm: rsaEncryption
                RSA Public-Key: (2048 bit)
                Modulus:
                    00:a0:7e:f7:fa:0c:20:e6:2a:2c:bb:41:44:99:a6:
                    6b:ac:73:c6:8b:4e:8b:4f:a4:7c:d9:a1:fb:f0:f7:
                    6d:b0:cc:46:95:76:f7:d6:c4:64:ac:85:8b:fe:bc:
                    32:05:79:f6:a7:fb:6e:79:ca:25:d6:9d:b2:10:e6:
                    ee:62:dd:38:67:30:8d:2d:94:24:b7:ad:1e:43:32:
                    45:01:b2:37:a1:d8:29:5b:45:21:17:c9:28:ed:03:
                    48:fa:b1:41:56:8f:29:a7:92:cf:c0:6c:58:a9:c8:
                    dd:da:ae:e6:31:b8:43:4e:98:0f:7e:3b:b1:7c:c5:
                    e6:df:f2:6d:07:fc:af:60:fe:18:d3:b3:3c:b0:7a:
                    16:2e:ae:a7:08:db:a0:1d:bc:8a:eb:30:83:94:34:
                    ec:d9:cb:ff:2a:2e:cd:cd:8b:96:6e:63:c0:bf:81:
                    7d:f1:34:f9:cb:1e:95:62:3f:d8:65:86:bd:50:c8:
                    db:84:91:38:54:1a:23:48:dc:84:dc:07:d9:22:3a:
                    e7:b3:e5:bb:48:e5:66:f1:07:b4:fc:b0:52:1f:67:
                    a9:5c:70:8f:76:23:1a:81:da:2b:9b:9f:97:5d:b1:
                    0c:85:1f:d0:11:7c:4a:9e:be:76:6c:09:60:76:b9:
                    3a:6e:4f:f3:90:36:06:61:7f:39:0e:88:32:b0:f8:
                    36:a7
                Exponent: 65537 (0x10001)
        X509v3 extensions:
            X509v3 Basic Constraints: 
                CA:FALSE
            X509v3 Extended Key Usage: 
                TLS Web Client Authentication, TLS Web Server Authentication
            X509v3 Key Usage: 
                Digital Signature, Key Encipherment
            X509v3 Subject Alternative Name: 
                DNS:etcd0, DNS:etcd1, DNS:etcd2, DNS:localhost, IP Address:172.11.1.1, IP Address:172.11.1.2, IP Address:172.11.1.3, IP Address:127.0.0.1
    Signature Algorithm: sha512WithRSAEncryption
         59:76:ae:23:11:dd:f7:00:c0:ff:e4:0b:d0:52:d5:53:a9:b6:
         0e:44:96:77:c7:e3:24:42:5a:cc:0f:57:f0:51:87:19:43:06:
         46:0e:4e:e7:45:6d:08:38:50:81:4a:3d:4e:26:5f:f8:2b:bd:
         bc:49:04:58:09:7b:6d:52:ad:e5:68:a0:05:08:53:be:e6:24:
         49:ed:6a:cc:d4:49:5f:9a:d6:50:11:b8:da:f4:a5:ab:43:e7:
         88:f7:e6:fe:d6:36:28:ca:7f:a3:7f:c7:9f:fc:af:3e:bb:cc:
         fb:ef:5a:df:a8:3c:38:17:e3:21:f3:54:e4:ae:72:f0:fe:81:
         69:ff:26:6f:31:e2:88:87:b5:c4:d6:39:38:70:37:96:b3:1e:
         2c:4b:5f:80:30:2f:e9:8a:91:50:78:a1:14:b8:2e:54:ad:e5:
         81:09:d7:a2:bb:39:3f:7e:ad:69:d7:ed:6d:4a:15:2c:cb:05:
         1c:d8:8e:79:87:88:20:83:13:cd:51:be:bd:4f:cf:a7:31:be:
         ad:9e:1b:be:0b:e7:fa:b6:08:f3:7d:ba:41:d1:d2:59:03:98:
         23:bf:5b:e8:ed:b3:a4:b7:dd:7c:17:42:ee:3e:65:b4:cb:fa:
         d7:f6:7c:8f:ae:22:60:cc:d0:22:5d:69:49:6a:f0:c9:d6:88:
         91:b7:c4:77
-----BEGIN CERTIFICATE-----
MIIDgzCCAmugAwIBAgIBATANBgkqhkiG9w0BAQ0FADBgMQswCQYDVQQGEwJVUzEW
MBQGA1UECAwNU2FuIEZyYW5jaXNjbzENMAsGA1UEBwwEU09NQTEWMBQGA1UECgwN
R3Jhdml0YXRpb25hbDESMBAGA1UEAwwJbG9jYWxob3N0MB4XDTE5MDkwMzE4NDgz
N1oXDTI5MDgzMTE4NDgzN1owLDEWMBQGA1UECgwNR3Jhdml0YXRpb25hbDESMBAG
A1UEAwwJbG9jYWxob3N0MIIBIjANBgkqhkiG9w0BAQEFAAOCAQ8AMIIBCgKCAQEA
oH73+gwg5iosu0FEmaZrrHPGi06LT6R82aH78PdtsMxGlXb31sRkrIWL/rwyBXn2
p/tuecol1p2yEObuYt04ZzCNLZQkt60eQzJFAbI3odgpW0UhF8ko7QNI+rFBVo8p
p5LPwGxYqcjd2q7mMbhDTpgPfjuxfMXm3/JtB/yvYP4Y07M8sHoWLq6nCNugHbyK
6zCDlDTs2cv/Ki7NzYuWbmPAv4F98TT5yx6VYj/YZYa9UMjbhJE4VBojSNyE3AfZ
Ijrns+W7SOVm8Qe0/LBSH2epXHCPdiMagdorm5+XXbEMhR/QEXxKnr52bAlgdrk6
bk/zkDYGYX85DogysPg2pwIDAQABo3wwejAJBgNVHRMEAjAAMB0GA1UdJQQWMBQG
CCsGAQUFBwMCBggrBgEFBQcDATALBgNVHQ8EBAMCBaAwQQYDVR0RBDowOIIFZXRj
ZDCCBWV0Y2QxggVldGNkMoIJbG9jYWxob3N0hwSsCwEBhwSsCwEChwSsCwEDhwR/
AAABMA0GCSqGSIb3DQEBDQUAA4IBAQBZdq4jEd33AMD/5AvQUtVTqbYORJZ3x+Mk
QlrMD1fwUYcZQwZGDk7nRW0IOFCBSj1OJl/4K728SQRYCXttUq3laKAFCFO+5iRJ
7WrM1ElfmtZQEbja9KWrQ+eI9+b+1jYoyn+jf8ef/K8+u8z771rfqDw4F+Mh81Tk
rnLw/oFp/yZvMeKIh7XE1jk4cDeWsx4sS1+AMC/pipFQeKEUuC5UreWBCdeiuzk/
fq1p1+1tShUsywUc2I55h4gggxPNUb69T8+nMb6tnhu+C+f6tgjzfbpB0dJZA5gj
v1vo7bOkt918F0LuPmW0y/rX9nyPriJgzNAiXWlJavDJ1oiRt8R3
-----END CERTIFICATE-----
