Certificate:
    Data:
        Version: 3 (0x2)
        Serial Number: 1 (0x1)
    Signature Algorithm: sha512WithRSAEncryption
        Issuer: C=US, ST=San Francisco, L=SOMA, O=Gravitational, CN=localhost
        Validity
            Not Before: Sep 17 00:08:34 2022 GMT
            Not After : Sep 14 00:08:34 2032 GMT
        Subject: O=Gravitational, CN=localhost
        Subject Public Key Info:
            Public Key Algorithm: rsaEncryption
                Public-Key: (2048 bit)
                Modulus:
                    00:b0:15:d2:4f:3b:99:dc:66:2f:78:db:8d:56:f7:
                    c9:e1:6a:e5:51:b3:b4:47:46:42:29:02:a4:33:b7:
                    94:8b:57:cf:85:36:09:13:cf:68:30:85:7a:de:a8:
                    44:b4:48:f2:96:0a:e6:3d:0b:69:54:5e:9d:fe:89:
                    41:5b:cc:41:8c:35:7f:d9:4d:5c:3d:e4:c5:d1:fe:
                    ee:a1:10:21:41:c8:3d:1b:c2:80:a8:28:d5:29:9c:
                    90:bc:71:4f:c2:f3:32:25:d0:67:5a:c7:bc:5a:d1:
                    81:ec:f0:b3:14:f1:93:95:1f:05:12:18:6d:96:48:
                    43:ea:de:49:80:09:b8:66:60:30:2b:5c:fb:20:69:
                    81:43:e0:29:98:55:97:14:5b:f8:89:f9:dc:b9:57:
                    0d:fe:60:ad:82:a1:39:9f:90:8d:67:8d:0f:91:67:
                    87:93:4a:1b:4c:7d:e1:8e:cd:d7:f2:bf:f7:b3:a1:
                    65:d0:02:1d:fb:d2:d1:33:8b:b2:03:c3:ca:30:89:
                    9d:8d:6e:d2:74:52:03:3e:05:25:18:be:70:28:13:
                    1b:8a:c4:d3:62:2d:76:53:7d:ef:76:5b:e8:4c:84:
                    e0:33:be:44:bb:d3:ce:fa:38:3b:30:4e:97:56:88:
                    7c:c5:cf:21:e7:fc:8d:e4:a7:aa:bd:ed:a5:54:03:
                    3a:f7
                Exponent: 65537 (0x10001)
        X509v3 extensions:
            X509v3 Basic Constraints: critical
                CA:TRUE
            X509v3 Key Usage: 
                Certificate Sign, CRL Sign
            X509v3 Subject Key Identifier: 
                03:AC:F2:2B:3A:0D:F0:F7:00:65:72:CC:30:F2:D2:45:BB:37:E7:36
            X509v3 Authority Key Identifier: 
                keyid:8C:FA:19:DD:F7:99:37:2E:CB:50:30:82:ED:1F:6F:54:3C:26:B4:78
                DirName:/C=US/ST=San Francisco/L=SOMA/O=Gravitational/CN=localhost
                serial:E7:73:77:88:8A:A3:45:E3

    Signature Algorithm: sha512WithRSAEncryption
         b4:f0:12:04:a8:60:4f:c3:27:e6:c0:fe:db:f3:52:d7:c2:66:
         3a:08:33:3d:15:83:72:fc:28:2d:42:5a:ce:cc:64:aa:75:58:
         fa:07:0b:3e:92:6d:50:8c:ba:f1:c9:b5:18:e8:63:58:ff:ae:
         4d:ec:e8:fb:ad:3d:f6:4e:57:7c:64:fc:87:57:ab:d1:13:8b:
         43:11:de:8c:da:47:f2:b9:e1:89:1b:15:6d:4d:8d:dc:64:bb:
         43:f1:df:6f:7e:7a:9f:ba:69:5f:f8:57:b0:f3:46:4b:41:71:
         ab:02:e7:57:74:c4:49:52:5f:a4:59:ee:5c:c7:45:aa:00:1f:
         49:26:ec:1d:44:2f:ed:ce:2a:01:8b:36:c0:e5:f4:6f:c1:28:
         7e:20:b4:fb:ae:a2:89:6d:05:36:5a:0a:e6:19:f3:27:d8:9d:
         c4:05:5a:2f:a6:d2:ec:42:91:b3:3d:b9:3d:9e:ca:a6:e2:a3:
         4b:eb:09:b1:de:d9:ec:6e:dc:01:42:c4:6d:93:bf:a3:06:0f:
         93:f3:23:60:7e:b8:60:e5:8f:f6:b2:1f:1a:a0:df:2a:f3:97:
         70:89:6e:70:7b:31:4c:f6:b1:5c:18:a8:4b:48:ab:b3:7d:45:
         7f:cf:7c:3d:15:fc:21:15:bb:e3:2a:3e:ae:7e:5e:44:d1:68:
         f5:9d:08:04:28:03:4a:44:6a:73:e9:12:52:c1:ed:87:bf:f2:
         ee:51:6e:13:53:12:fc:fa:b3:02:03:8b:b9:c1:04:c8:c2:a0:
         4a:1d:da:70:08:95:8a:2a:f6:dc:a2:99:a8:b4:ff:04:ae:70:
         da:52:64:c1:6f:70:3b:ed:72:eb:f2:11:07:a3:2c:7e:ec:de:
         fb:8e:45:13:6e:58:fa:79:32:10:f7:6f:ba:16:e6:59:55:88:
         b8:88:67:b0:e7:ad:a7:72:02:2c:fb:89:7d:d0:fd:ac:85:55:
         91:d8:63:3b:1b:17:90:0b:f7:a8:8f:dc:08:7e:cc:e0:53:78:
         9f:5f:7b:31:1e:56:83:1f:3a:cb:b4:10:70:ad:b7:b7:a2:e9:
         b8:74:1f:cc:7f:d5:f5:d8:d8:8e:36:ba:e6:1d:72:89:b4:30:
         22:28:05:b3:e1:67:7d:7f:c6:a5:f8:f9:1e:1e:35:e3:60:ee:
         8d:f2:90:76:be:fb:a9:20:1e:80:22:cc:1f:46:21:6b:04:a5:
         96:e9:0a:d1:04:23:30:fb:7c:6a:ef:f6:32:85:20:ff:ea:f2:
         19:dc:66:37:29:15:c5:63:a7:b4:52:9c:d3:3f:68:0a:f0:c2:
         c1:48:39:e4:62:1f:5f:97:f4:c4:92:1c:97:29:28:11:64:a1:
         1c:55:54:2c:b6:60:d7:7d
-----BEGIN CERTIFICATE-----
MIIE3TCCAsWgAwIBAgIBATANBgkqhkiG9w0BAQ0FADBgMQswCQYDVQQGEwJVUzEW
MBQGA1UECAwNU2FuIEZyYW5jaXNjbzENMAsGA1UEBwwEU09NQTEWMBQGA1UECgwN
R3Jhdml0YXRpb25hbDESMBAGA1UEAwwJbG9jYWxob3N0MB4XDTIyMDkxNzAwMDgz
NFoXDTMyMDkxNDAwMDgzNFowLDEWMBQGA1UECgwNR3Jhdml0YXRpb25hbDESMBAG
A1UEAwwJbG9jYWxob3N0MIIBIjANBgkqhkiG9w0BAQEFAAOCAQ8AMIIBCgKCAQEA
sBXSTzuZ3GYveNuNVvfJ4WrlUbO0R0ZCKQKkM7eUi1fPhTYJE89oMIV63qhEtEjy
lgrmPQtpVF6d/olBW8xBjDV/2U1cPeTF0f7uoRAhQcg9G8KAqCjVKZyQvHFPwvMy
JdBnWse8WtGB7PCzFPGTlR8FEhhtlkhD6t5JgAm4ZmAwK1z7IGmBQ+ApmFWXFFv4
ifncuVcN/mCtgqE5n5CNZ40PkWeHk0obTH3hjs3X8r/3s6Fl0AId+9LRM4uyA8PK
MImdjW7SdFIDPgUlGL5wKBMbisTTYi12U33vdlvoTITgM75Eu9PO+jg7ME6XVoh8
xc8h5/yN5Keqve2lVAM69wIDAQABo4HVMIHSMA8GA1UdEwEB/wQFMAMBAf8wCwYD
VR0PBAQDAgEGMB0GA1UdDgQWBBQDrPIrOg3w9wBlcsww8tJFuzfnNjCBkgYDVR0j
BIGKMIGHgBSM+hnd95k3LstQMILtH29UPCa0eKFkpGIwYDELMAkGA1UEBhMCVVMx
FjAUBgNVBAgMDVNhbiBGcmFuY2lzY28xDTALBgNVBAcMBFNPTUExFjAUBgNVBAoM
DUdyYXZpdGF0aW9uYWwxEjAQBgNVBAMMCWxvY2FsaG9zdIIJAOdzd4iKo0XjMA0G
CSqGSIb3DQEBDQUAA4ICAQC08BIEqGBPwyfmwP7b81LXwmY6CDM9FYNy/CgtQlrO
zGSqdVj6Bws+km1QjLrxybUY6GNY/65N7Oj7rT32Tld8ZPyHV6vRE4tDEd6M2kfy
ueGJGxVtTY3cZLtD8d9vfnqfumlf+Few80ZLQXGrAudXdMRJUl+kWe5cx0WqAB9J
JuwdRC/tzioBizbA5fRvwSh+ILT7rqKJbQU2WgrmGfMn2J3EBVovptLsQpGzPbk9
nsqm4qNL6wmx3tnsbtwBQsRtk7+jBg+T8yNgfrhg5Y/2sh8aoN8q85dwiW5wezFM
9rFcGKhLSKuzfUV/z3w9FfwhFbvjKj6ufl5E0Wj1nQgEKANKRGpz6RJSwe2Hv/Lu
UW4TUxL8+rMCA4u5wQTIwqBKHdpwCJWKKvbcopmotP8ErnDaUmTBb3A77XLr8hEH
oyx+7N77jkUTblj6eTIQ92+6FuZZVYi4iGew562ncgIs+4l90P2shVWR2GM7GxeQ
C/eoj9wIfszgU3ifX3sxHlaDHzrLtBBwrbe3oum4dB/Mf9X12NiONrrmHXKJtDAi
KAWz4Wd9f8al+PkeHjXjYO6N8pB2vvupIB6AIswfRiFrBKWW6QrRBCMw+3xq7/Yy
hSD/6vIZ3GY3KRXFY6e0UpzTP2gK8MLBSDnkYh9fl/TEkhyXKSgRZKEcVVQstmDX
fQ==
-----END CERTIFICATE-----
