Certificate:
    Data:
        Version: 3 (0x2)
        Serial Number: 3 (0x3)
    Signature Algorithm: sha512WithRSAEncryption
        Issuer: C=US, ST=San Francisco, L=SOMA, O=Gravitational, CN=localhost
        Validity
            Not Before: Jan 16 07:13:36 2017 GMT
            Not After : Jan 14 07:13:36 2027 GMT
        Subject: O=Gravitational, CN=localhost
        Subject Public Key Info:
            Public Key Algorithm: rsaEncryption
                Public-Key: (2048 bit)
                Modulus:
                    00:ab:61:34:be:aa:e4:71:68:c7:a3:c4:9e:3f:4b:
                    42:8a:68:dd:47:e7:43:28:47:2b:4e:08:f9:7c:0e:
                    2d:29:a8:d4:55:a8:0e:cd:af:9b:f4:76:3c:2b:4b:
                    dd:fe:ea:eb:bd:84:8a:a4:a6:e9:d6:7a:4a:53:7d:
                    28:7a:ef:09:91:4d:82:2d:2a:8b:6e:ae:05:b5:77:
                    77:12:bd:7d:61:b8:ac:12:e7:d4:cb:be:d3:4e:64:
                    ab:33:1c:e8:35:a4:1f:fe:78:3f:ca:48:58:33:c1:
                    7d:a9:56:81:81:c8:bd:5f:e5:ed:80:cf:13:65:80:
                    26:db:97:30:92:ad:be:f8:82:fb:e3:99:4d:fa:6c:
                    0e:3a:bc:31:c6:07:82:b9:ae:32:27:68:d0:cb:19:
                    15:10:23:33:53:9f:3b:43:c6:8a:13:58:f4:b3:43:
                    a6:12:c0:73:83:4b:83:3f:03:13:62:d7:34:ea:09:
                    ac:b8:c4:8c:ae:d9:8f:aa:1a:3f:20:a4:65:d3:63:
                    93:9d:f7:0e:81:62:a4:5e:7f:71:43:56:87:b8:a6:
                    0e:b5:c4:d0:8c:5b:0e:eb:a5:65:7e:22:00:c2:a1:
                    dc:92:8c:2e:4a:6c:2f:ce:b0:d7:42:09:19:72:8a:
                    cc:14:66:7f:49:66:1e:81:20:bc:c7:54:f4:14:7b:
                    b4:1b
                Exponent: 65537 (0x10001)
        X509v3 extensions:
            X509v3 Basic Constraints: 
                CA:FALSE
            X509v3 Extended Key Usage: 
                TLS Web Client Authentication
            X509v3 Key Usage: 
                Digital Signature, Key Encipherment
    Signature Algorithm: sha512WithRSAEncryption
         94:c2:d2:6b:a1:5c:14:23:f2:64:16:f2:aa:c9:06:3d:02:68:
         e1:e3:99:49:79:a4:74:dc:2d:2d:2d:8e:cd:02:4f:93:05:6a:
         d0:db:f5:65:62:d9:ff:4c:e7:e1:21:7c:c5:20:11:73:26:b8:
         62:f9:a2:0e:11:18:15:17:00:23:38:7c:d9:d4:bd:16:37:da:
         c8:2a:01:7a:71:b7:19:a8:77:fd:b0:71:0e:64:2d:de:44:82:
         c2:ea:38:f1:ad:4b:1b:93:28:fa:4f:a9:6b:6c:d5:99:f7:4e:
         89:e6:ef:5a:25:14:18:a3:28:55:36:d8:36:d3:7f:d8:61:1f:
         6b:77:1f:b3:6c:86:37:d7:e6:0e:85:b2:76:07:26:9e:1e:cf:
         bf:e0:51:94:ab:32:b7:58:23:86:86:c6:f0:bf:34:db:8f:9b:
         d2:51:ec:a9:6d:25:fe:ac:9a:5c:85:94:8f:5a:48:8b:d0:72:
         d0:5c:c0:b8:79:7c:31:90:a3:31:ea:1b:b7:bc:82:30:8c:ec:
         f5:b3:c8:54:f8:e9:6b:a0:9c:03:88:a3:ae:dc:f5:44:d2:67:
         35:52:70:51:70:64:a7:39:f7:db:8b:dc:6f:72:78:d0:ef:be:
         35:68:a6:34:9d:09:39:2d:30:92:d2:5d:94:4d:07:43:03:0a:
         28:39:88:37
-----BEGIN CERTIFICATE-----
MIIDNjCCAh6gAwIBAgIBAzANBgkqhkiG9w0BAQ0FADBgMQswCQYDVQQGEwJVUzEW
MBQGA1UECAwNU2FuIEZyYW5jaXNjbzENMAsGA1UEBwwEU09NQTEWMBQGA1UECgwN
R3Jhdml0YXRpb25hbDESMBAGA1UEAwwJbG9jYWxob3N0MB4XDTE3MDExNjA3MTMz
NloXDTI3MDExNDA3MTMzNlowLDEWMBQGA1UECgwNR3Jhdml0YXRpb25hbDESMBAG
A1UEAwwJbG9jYWxob3N0MIIBIjANBgkqhkiG9w0BAQEFAAOCAQ8AMIIBCgKCAQEA
q2E0vqrkcWjHo8SeP0tCimjdR+dDKEcrTgj5fA4tKajUVagOza+b9HY8K0vd/urr
vYSKpKbp1npKU30oeu8JkU2CLSqLbq4FtXd3Er19YbisEufUy77TTmSrMxzoNaQf
/ng/ykhYM8F9qVaBgci9X+XtgM8TZYAm25cwkq2++IL745lN+mwOOrwxxgeCua4y
J2jQyxkVECMzU587Q8aKE1j0s0OmEsBzg0uDPwMTYtc06gmsuMSMrtmPqho/IKRl
02OTnfcOgWKkXn9xQ1aHuKYOtcTQjFsO66VlfiIAwqHckowuSmwvzrDXQgkZcorM
FGZ/SWYegSC8x1T0FHu0GwIDAQABoy8wLTAJBgNVHRMEAjAAMBMGA1UdJQQMMAoG
CCsGAQUFBwMCMAsGA1UdDwQEAwIFoDANBgkqhkiG9w0BAQ0FAAOCAQEAlMLSa6Fc
FCPyZBbyqskGPQJo4eOZSXmkdNwtLS2OzQJPkwVq0Nv1ZWLZ/0zn4SF8xSARcya4
YvmiDhEYFRcAIzh82dS9FjfayCoBenG3Gah3/bBxDmQt3kSCwuo48a1LG5Mo+k+p
a2zVmfdOiebvWiUUGKMoVTbYNtN/2GEfa3cfs2yGN9fmDoWydgcmnh7Pv+BRlKsy
t1gjhobG8L8024+b0lHsqW0l/qyaXIWUj1pIi9By0FzAuHl8MZCjMeobt7yCMIzs
9bPIVPjpa6CcA4ijrtz1RNJnNVJwUXBkpzn324vcb3J40O++NWimNJ0JOS0wktJd
lE0HQwMKKDmINw==
-----END CERTIFICATE-----
